target datalayout = "e-m:e-p270:32:32-p271:32:32-p272:64:64-i64:64-i128:128-f80:128-n8:16:32:64-S128"
target triple = "x86_64-pc-linux-gnu"

%struct.strbuf = type { i64, i64, ptr }
%struct.oid_stat = type { %struct.stat_data, %struct.object_id, i32 }
%struct.stat_data = type { %struct.cache_time, %struct.cache_time, i32, i32, i32, i32, i32 }
%struct.cache_time = type { i32, i32 }
%struct.object_id = type { [32 x i8], i32 }
%struct.index_state = type { ptr, i32, i32, i32, i32, ptr, ptr, ptr, %struct.cache_time, i8, i32, %struct.hashmap, %struct.hashmap, %struct.object_id, ptr, ptr, ptr, ptr, ptr, ptr, ptr }
%struct.hashmap = type { ptr, ptr, ptr, i32, i32, i32, i32, i8 }
%struct.untracked_cache = type { %struct.oid_stat, %struct.oid_stat, ptr, ptr, %struct.strbuf, i32, ptr, i32, i32, i32, i32, i8 }
%struct.utsname = type { [65 x i8], [65 x i8], [65 x i8], [65 x i8], [65 x i8], [65 x i8] }

@strbuf_slopbuf = external global [0 x i8], align 1
@the_repository = external global ptr, align 8
@.str.15 = private unnamed_addr constant [11 x i8] c".gitignore\00", align 1
@.str.31 = private unnamed_addr constant [11 x i8] c"./strbuf.h\00", align 1
@.str.32 = private unnamed_addr constant [30 x i8] c"strbuf_setlen() beyond buffer\00", align 1
@.str.45 = private unnamed_addr constant [26 x i8] c"status.showuntrackedfiles\00", align 1
@.str.46 = private unnamed_addr constant [4 x i8] c"all\00", align 1
@get_ident_string.sb = internal global %struct.strbuf { i64 0, i64 0, ptr @strbuf_slopbuf }, align 8
@.str.47 = private unnamed_addr constant [42 x i8] c"failed to get kernel name and information\00", align 1
@.str.48 = private unnamed_addr constant [23 x i8] c"Location %s, system %s\00", align 1

; Function Attrs: inlinehint nounwind uwtable
define internal i64 @strbuf_avail(ptr noundef %0) #3 {
  %2 = alloca ptr, align 8
  store ptr %0, ptr %2, align 8, !tbaa !117
  %3 = load ptr, ptr %2, align 8, !tbaa !117
  %4 = getelementptr inbounds nuw %struct.strbuf, ptr %3, i32 0, i32 0
  %5 = load i64, ptr %4, align 8, !tbaa !121
  %6 = icmp ne i64 %5, 0
  br i1 %6, label %7, label %16

7:                                                ; preds = %1
  %8 = load ptr, ptr %2, align 8, !tbaa !117
  %9 = getelementptr inbounds nuw %struct.strbuf, ptr %8, i32 0, i32 0
  %10 = load i64, ptr %9, align 8, !tbaa !121
  %11 = load ptr, ptr %2, align 8, !tbaa !117
  %12 = getelementptr inbounds nuw %struct.strbuf, ptr %11, i32 0, i32 1
  %13 = load i64, ptr %12, align 8, !tbaa !122
  %14 = sub i64 %10, %13
  %15 = sub i64 %14, 1
  br label %17

16:                                               ; preds = %1
  br label %17

17:                                               ; preds = %16, %7
  %18 = phi i64 [ %15, %7 ], [ 0, %16 ]
  ret i64 %18
}

; Function Attrs: inlinehint nounwind uwtable
define internal void @strbuf_addch(ptr noundef %0, i32 noundef %1) #3 {
  %3 = alloca ptr, align 8
  %4 = alloca i32, align 4
  store ptr %0, ptr %3, align 8, !tbaa !117
  store i32 %1, ptr %4, align 4, !tbaa !16
  %5 = load ptr, ptr %3, align 8, !tbaa !117
  %6 = call i64 @strbuf_avail(ptr noundef %5)
  %7 = icmp ne i64 %6, 0
  br i1 %7, label %10, label %8

8:                                                ; preds = %2
  %9 = load ptr, ptr %3, align 8, !tbaa !117
  call void @strbuf_grow(ptr noundef %9, i64 noundef 1)
  br label %10

10:                                               ; preds = %8, %2
  %11 = load i32, ptr %4, align 4, !tbaa !16
  %12 = trunc i32 %11 to i8
  %13 = load ptr, ptr %3, align 8, !tbaa !117
  %14 = getelementptr inbounds nuw %struct.strbuf, ptr %13, i32 0, i32 2
  %15 = load ptr, ptr %14, align 8, !tbaa !119
  %16 = load ptr, ptr %3, align 8, !tbaa !117
  %17 = getelementptr inbounds nuw %struct.strbuf, ptr %16, i32 0, i32 1
  %18 = load i64, ptr %17, align 8, !tbaa !122
  %19 = add i64 %18, 1
  store i64 %19, ptr %17, align 8, !tbaa !122
  %20 = getelementptr inbounds nuw i8, ptr %15, i64 %18
  store i8 %12, ptr %20, align 1, !tbaa !15
  %21 = load ptr, ptr %3, align 8, !tbaa !117
  %22 = getelementptr inbounds nuw %struct.strbuf, ptr %21, i32 0, i32 2
  %23 = load ptr, ptr %22, align 8, !tbaa !119
  %24 = load ptr, ptr %3, align 8, !tbaa !117
  %25 = getelementptr inbounds nuw %struct.strbuf, ptr %24, i32 0, i32 1
  %26 = load i64, ptr %25, align 8, !tbaa !122
  %27 = getelementptr inbounds nuw i8, ptr %23, i64 %26
  store i8 0, ptr %27, align 1, !tbaa !15
  ret void
}

; Function Attrs: inlinehint nounwind uwtable
define internal void @strbuf_addstr(ptr noundef %0, ptr noundef %1) #3 {
  %3 = alloca ptr, align 8
  %4 = alloca ptr, align 8
  store ptr %0, ptr %3, align 8, !tbaa !117
  store ptr %1, ptr %4, align 8, !tbaa !13
  %5 = load ptr, ptr %3, align 8, !tbaa !117
  %6 = load ptr, ptr %4, align 8, !tbaa !13
  %7 = load ptr, ptr %4, align 8, !tbaa !13
  %8 = call i64 @strlen(ptr noundef %7) #13
  call void @strbuf_add(ptr noundef %5, ptr noundef %6, i64 noundef %8)
  ret void
}

; Function Attrs: nounwind uwtable
define internal ptr @get_ident_string() #0 {
  %1 = alloca ptr, align 8
  %2 = alloca %struct.utsname, align 1
  %3 = alloca i32, align 4
  call void @llvm.lifetime.start.p0(i64 390, ptr %2) #12
  %4 = load i64, ptr getelementptr inbounds nuw (%struct.strbuf, ptr @get_ident_string.sb, i32 0, i32 1), align 8, !tbaa !122
  %5 = icmp ne i64 %4, 0
  br i1 %5, label %6, label %8

6:                                                ; preds = %0
  %7 = load ptr, ptr getelementptr inbounds nuw (%struct.strbuf, ptr @get_ident_string.sb, i32 0, i32 2), align 8, !tbaa !119
  store ptr %7, ptr %1, align 8
  store i32 1, ptr %3, align 4
  br label %19

8:                                                ; preds = %0
  %9 = call i32 @uname(ptr noundef %2) #12
  %10 = icmp slt i32 %9, 0
  br i1 %10, label %11, label %13

11:                                               ; preds = %8
  %12 = call ptr @_(ptr noundef @.str.47)
  call void (ptr, ...) @die_errno(ptr noundef %12) #14
  unreachable

13:                                               ; preds = %8
  %14 = load ptr, ptr @the_repository, align 8, !tbaa !140
  %15 = call ptr @repo_get_work_tree(ptr noundef %14)
  %16 = getelementptr inbounds nuw %struct.utsname, ptr %2, i32 0, i32 0
  %17 = getelementptr inbounds [65 x i8], ptr %16, i64 0, i64 0
  call void (ptr, ptr, ...) @strbuf_addf(ptr noundef @get_ident_string.sb, ptr noundef @.str.48, ptr noundef %15, ptr noundef %17)
  %18 = load ptr, ptr getelementptr inbounds nuw (%struct.strbuf, ptr @get_ident_string.sb, i32 0, i32 2), align 8, !tbaa !119
  store ptr %18, ptr %1, align 8
  store i32 1, ptr %3, align 4
  br label %19

19:                                               ; preds = %13, %6
  call void @llvm.lifetime.end.p0(i64 390, ptr %2) #12
  %20 = load ptr, ptr %1, align 8
  ret ptr %20
}

; Function Attrs: inlinehint nounwind uwtable
define internal void @strbuf_setlen(ptr noundef %0, i64 noundef %1) #3 {
  %3 = alloca ptr, align 8
  %4 = alloca i64, align 8
  store ptr %0, ptr %3, align 8, !tbaa !117
  store i64 %1, ptr %4, align 8, !tbaa !19
  %5 = load i64, ptr %4, align 8, !tbaa !19
  %6 = load ptr, ptr %3, align 8, !tbaa !117
  %7 = getelementptr inbounds nuw %struct.strbuf, ptr %6, i32 0, i32 0
  %8 = load i64, ptr %7, align 8, !tbaa !121
  %9 = icmp ne i64 %8, 0
  br i1 %9, label %10, label %15

10:                                               ; preds = %2
  %11 = load ptr, ptr %3, align 8, !tbaa !117
  %12 = getelementptr inbounds nuw %struct.strbuf, ptr %11, i32 0, i32 0
  %13 = load i64, ptr %12, align 8, !tbaa !121
  %14 = sub i64 %13, 1
  br label %16

15:                                               ; preds = %2
  br label %16

16:                                               ; preds = %15, %10
  %17 = phi i64 [ %14, %10 ], [ 0, %15 ]
  %18 = icmp ugt i64 %5, %17
  br i1 %18, label %19, label %20

19:                                               ; preds = %16
  call void (ptr, i32, ptr, ...) @BUG_fl(ptr noundef @.str.31, i32 noundef 167, ptr noundef @.str.32) #14
  unreachable

20:                                               ; preds = %16
  %21 = load i64, ptr %4, align 8, !tbaa !19
  %22 = load ptr, ptr %3, align 8, !tbaa !117
  %23 = getelementptr inbounds nuw %struct.strbuf, ptr %22, i32 0, i32 1
  store i64 %21, ptr %23, align 8, !tbaa !122
  %24 = load ptr, ptr %3, align 8, !tbaa !117
  %25 = getelementptr inbounds nuw %struct.strbuf, ptr %24, i32 0, i32 2
  %26 = load ptr, ptr %25, align 8, !tbaa !119
  %27 = icmp ne ptr %26, @strbuf_slopbuf
  br i1 %27, label %28, label %34

28:                                               ; preds = %20
  %29 = load ptr, ptr %3, align 8, !tbaa !117
  %30 = getelementptr inbounds nuw %struct.strbuf, ptr %29, i32 0, i32 2
  %31 = load ptr, ptr %30, align 8, !tbaa !119
  %32 = load i64, ptr %4, align 8, !tbaa !19
  %33 = getelementptr inbounds nuw i8, ptr %31, i64 %32
  store i8 0, ptr %33, align 1, !tbaa !15
  br label %35

34:                                               ; preds = %20
  br label %35

35:                                               ; preds = %34, %28
  ret void
}

; Function Attrs: nounwind uwtable
define internal void @set_untracked_ident(ptr noundef %0) #0 {
  %2 = alloca ptr, align 8
  store ptr %0, ptr %2, align 8, !tbaa !187
  %3 = load ptr, ptr %2, align 8, !tbaa !187
  %4 = getelementptr inbounds nuw %struct.untracked_cache, ptr %3, i32 0, i32 4
  call void @strbuf_setlen(ptr noundef %4, i64 noundef 0)
  %5 = load ptr, ptr %2, align 8, !tbaa !187
  %6 = getelementptr inbounds nuw %struct.untracked_cache, ptr %5, i32 0, i32 4
  %7 = call ptr @get_ident_string()
  call void @strbuf_addstr(ptr noundef %6, ptr noundef %7)
  %8 = load ptr, ptr %2, align 8, !tbaa !187
  %9 = getelementptr inbounds nuw %struct.untracked_cache, ptr %8, i32 0, i32 4
  call void @strbuf_addch(ptr noundef %9, i32 noundef 0)
  ret void
}

; Function Attrs: nounwind uwtable
define internal i32 @new_untracked_cache_flags(ptr noundef %0) #0 {
  %2 = alloca i32, align 4
  %3 = alloca ptr, align 8
  %4 = alloca ptr, align 8
  %5 = alloca ptr, align 8
  %6 = alloca i32, align 4
  store ptr %0, ptr %3, align 8, !tbaa !41
  call void @llvm.lifetime.start.p0(i64 8, ptr %4) #12
  %7 = load ptr, ptr %3, align 8, !tbaa !41
  %8 = getelementptr inbounds nuw %struct.index_state, ptr %7, i32 0, i32 19
  %9 = load ptr, ptr %8, align 8, !tbaa !55
  store ptr %9, ptr %4, align 8, !tbaa !140
  call void @llvm.lifetime.start.p0(i64 8, ptr %5) #12
  %10 = load ptr, ptr %4, align 8, !tbaa !140
  %11 = call i32 @repo_config_get_string_tmp(ptr noundef %10, ptr noundef @.str.45, ptr noundef %5)
  %12 = icmp ne i32 %11, 0
  br i1 %12, label %18, label %13

13:                                               ; preds = %1
  %14 = load ptr, ptr %5, align 8, !tbaa !13
  %15 = call i32 @strcmp(ptr noundef %14, ptr noundef @.str.46) #13
  %16 = icmp ne i32 %15, 0
  br i1 %16, label %18, label %17

17:                                               ; preds = %13
  store i32 0, ptr %2, align 4
  store i32 1, ptr %6, align 4
  br label %19

18:                                               ; preds = %13, %1
  store i32 6, ptr %2, align 4
  store i32 1, ptr %6, align 4
  br label %19

19:                                               ; preds = %18, %17
  call void @llvm.lifetime.end.p0(i64 8, ptr %5) #12
  call void @llvm.lifetime.end.p0(i64 8, ptr %4) #12
  %20 = load i32, ptr %2, align 4
  ret i32 %20
}

; Function Attrs: nounwind uwtable
define internal void @new_untracked_cache(ptr noundef %0, i32 noundef %1) #0 {
  %3 = alloca ptr, align 8
  %4 = alloca i32, align 4
  %5 = alloca ptr, align 8
  store ptr %0, ptr %3, align 8, !tbaa !41
  store i32 %1, ptr %4, align 4, !tbaa !16
  call void @llvm.lifetime.start.p0(i64 8, ptr %5) #12
  %6 = call ptr @xcalloc(i64 noundef 1, i64 noundef 232)
  store ptr %6, ptr %5, align 8, !tbaa !187
  %7 = load ptr, ptr %5, align 8, !tbaa !187
  %8 = getelementptr inbounds nuw %struct.untracked_cache, ptr %7, i32 0, i32 4
  call void @strbuf_init(ptr noundef %8, i64 noundef 100)
  %9 = load ptr, ptr %5, align 8, !tbaa !187
  %10 = getelementptr inbounds nuw %struct.untracked_cache, ptr %9, i32 0, i32 2
  store ptr @.str.15, ptr %10, align 8, !tbaa !188
  %11 = load i32, ptr %4, align 4, !tbaa !16
  %12 = icmp sge i32 %11, 0
  br i1 %12, label %13, label %15

13:                                               ; preds = %2
  %14 = load i32, ptr %4, align 4, !tbaa !16
  br label %18

15:                                               ; preds = %2
  %16 = load ptr, ptr %3, align 8, !tbaa !41
  %17 = call i32 @new_untracked_cache_flags(ptr noundef %16)
  br label %18

18:                                               ; preds = %15, %13
  %19 = phi i32 [ %14, %13 ], [ %17, %15 ]
  %20 = load ptr, ptr %5, align 8, !tbaa !187
  %21 = getelementptr inbounds nuw %struct.untracked_cache, ptr %20, i32 0, i32 5
  store i32 %19, ptr %21, align 8, !tbaa !189
  %22 = load ptr, ptr %5, align 8, !tbaa !187
  call void @set_untracked_ident(ptr noundef %22)
  %23 = load ptr, ptr %5, align 8, !tbaa !187
  %24 = load ptr, ptr %3, align 8, !tbaa !41
  %25 = getelementptr inbounds nuw %struct.index_state, ptr %24, i32 0, i32 14
  store ptr %23, ptr %25, align 8, !tbaa !91
  %26 = load ptr, ptr %3, align 8, !tbaa !41
  %27 = getelementptr inbounds nuw %struct.index_state, ptr %26, i32 0, i32 4
  %28 = load i32, ptr %27, align 4, !tbaa !96
  %29 = or i32 %28, 128
  store i32 %29, ptr %27, align 4, !tbaa !96
  call void @llvm.lifetime.end.p0(i64 8, ptr %5) #12
  ret void
}