; Function Attrs: nounwind uwtable
define internal fastcc void @new_untracked_cache(ptr noundef captures(none) %0, i32 noundef %1) unnamed_addr #0 {
  %3 = alloca %struct.utsname, align 1
  %4 = alloca ptr, align 8
  %5 = tail call ptr @xcalloc(i64 noundef 1, i64 noundef 232) #27
  %6 = getelementptr inbounds nuw i8, ptr %5, i64 168
  tail call void @strbuf_init(ptr noundef nonnull %6, i64 noundef 100) #27
  %7 = getelementptr inbounds nuw i8, ptr %5, i64 152
  store ptr @.str.15, ptr %7, align 8, !tbaa !57
  %8 = icmp sgt i32 %1, -1
  br i1 %8, label %16, label %9

9:                                                ; preds = %2
  %10 = getelementptr i8, ptr %0, i64 240
  %.val = load ptr, ptr %10, align 8, !tbaa !39
  call void @llvm.lifetime.start.p0(i64 8, ptr nonnull %4) #27
  %11 = call i32 @repo_config_get_string_tmp(ptr noundef %.val, ptr noundef nonnull @.str.45, ptr noundef nonnull %4) #27
  %.not.i = icmp eq i32 %11, 0
  br i1 %.not.i, label %12, label %15

12:                                               ; preds = %9
  %13 = load ptr, ptr %4, align 8, !tbaa !102
  %14 = call i32 @strcmp(ptr noundef nonnull dereferenceable(1) %13, ptr noundef nonnull dereferenceable(4) @.str.46) #28
  %.not2.i = icmp eq i32 %14, 0
  br i1 %.not2.i, label %new_untracked_cache_flags.exit, label %15

15:                                               ; preds = %12, %9
  br label %new_untracked_cache_flags.exit

new_untracked_cache_flags.exit:                   ; preds = %12, %15
  %.0.i = phi i32 [ 6, %15 ], [ 0, %12 ]
  call void @llvm.lifetime.end.p0(i64 8, ptr nonnull %4) #27
  br label %16

16:                                               ; preds = %2, %new_untracked_cache_flags.exit
  %17 = phi i32 [ %.0.i, %new_untracked_cache_flags.exit ], [ %1, %2 ]
  %18 = getelementptr inbounds nuw i8, ptr %5, i64 192
  store i32 %17, ptr %18, align 8, !tbaa !63
  %19 = getelementptr inbounds nuw i8, ptr %5, i64 176
  store i64 0, ptr %19, align 8, !tbaa !73
  %20 = getelementptr inbounds nuw i8, ptr %5, i64 184
  %21 = load ptr, ptr %20, align 8, !tbaa !74
  %.not9.i.i = icmp eq ptr %21, @strbuf_slopbuf
  br i1 %.not9.i.i, label %strbuf_setlen.exit.i, label %22

22:                                               ; preds = %16
  store i8 0, ptr %21, align 1, !tbaa !4
  br label %strbuf_setlen.exit.i

strbuf_setlen.exit.i:                             ; preds = %22, %16
  call void @llvm.lifetime.start.p0(i64 390, ptr nonnull %3) #27
  %23 = load i64, ptr getelementptr inbounds nuw (i8, ptr @get_ident_string.sb, i64 8), align 8, !tbaa !73
  %.not.i.i = icmp eq i64 %23, 0
  br i1 %.not.i.i, label %24, label %get_ident_string.exit.i

24:                                               ; preds = %strbuf_setlen.exit.i
  %25 = call i32 @uname(ptr noundef nonnull %3) #27
  %26 = icmp slt i32 %25, 0
  br i1 %26, label %27, label %29

27:                                               ; preds = %24
  %28 = call fastcc ptr @_(ptr noundef nonnull @.str.47)
  call void (ptr, ...) @die_errno(ptr noundef %28) #29
  unreachable

29:                                               ; preds = %24
  %30 = load ptr, ptr @the_repository, align 8, !tbaa !132
  %31 = call ptr @repo_get_work_tree(ptr noundef %30) #27
  call void (ptr, ptr, ...) @strbuf_addf(ptr noundef nonnull @get_ident_string.sb, ptr noundef nonnull @.str.48, ptr noundef %31, ptr noundef nonnull %3) #27
  br label %get_ident_string.exit.i

get_ident_string.exit.i:                          ; preds = %29, %strbuf_setlen.exit.i
  %.0.i.i = load ptr, ptr getelementptr inbounds nuw (i8, ptr @get_ident_string.sb, i64 16), align 8, !tbaa !74
  call void @llvm.lifetime.end.p0(i64 390, ptr nonnull %3) #27
  %32 = call i64 @strlen(ptr noundef nonnull dereferenceable(1) %.0.i.i) #28
  call void @strbuf_add(ptr noundef nonnull %6, ptr noundef nonnull %.0.i.i, i64 noundef %32) #27
  %33 = load i64, ptr %6, align 8, !tbaa !109
  %.not.i.i.i = icmp eq i64 %33, 0
  br i1 %.not.i.i.i, label %strbuf_avail.exit.thread.i.i, label %strbuf_avail.exit.i.i

strbuf_avail.exit.i.i:                            ; preds = %get_ident_string.exit.i
  %34 = load i64, ptr %19, align 8, !tbaa !73
  %.neg.i.i = add i64 %34, 1
  %.not.i3.i = icmp eq i64 %33, %.neg.i.i
  br i1 %.not.i3.i, label %strbuf_avail.exit.thread.i.i, label %set_untracked_ident.exit

strbuf_avail.exit.thread.i.i:                     ; preds = %strbuf_avail.exit.i.i, %get_ident_string.exit.i
  call void @strbuf_grow(ptr noundef nonnull %6, i64 noundef 1) #27
  %.pre.i.i = load i64, ptr %19, align 8, !tbaa !73
  %.pre7.i.i = add i64 %.pre.i.i, 1
  br label %set_untracked_ident.exit

set_untracked_ident.exit:                         ; preds = %strbuf_avail.exit.i.i, %strbuf_avail.exit.thread.i.i
  %.pre-phi.i.i = phi i64 [ %.pre7.i.i, %strbuf_avail.exit.thread.i.i ], [ %.neg.i.i, %strbuf_avail.exit.i.i ]
  %35 = phi i64 [ %.pre.i.i, %strbuf_avail.exit.thread.i.i ], [ %34, %strbuf_avail.exit.i.i ]
  %36 = load ptr, ptr %20, align 8, !tbaa !74
  store i64 %.pre-phi.i.i, ptr %19, align 8, !tbaa !73
  %37 = getelementptr inbounds nuw i8, ptr %36, i64 %35
  store i8 0, ptr %37, align 1, !tbaa !4
  %38 = load ptr, ptr %20, align 8, !tbaa !74
  %39 = load i64, ptr %19, align 8, !tbaa !73
  %40 = getelementptr inbounds nuw i8, ptr %38, i64 %39
  store i8 0, ptr %40, align 1, !tbaa !4
  %41 = getelementptr inbounds nuw i8, ptr %0, i64 200
  store ptr %5, ptr %41, align 8, !tbaa !64
  %42 = getelementptr inbounds nuw i8, ptr %0, i64 20
  %43 = load i32, ptr %42, align 4, !tbaa !66
  %44 = or i32 %43, 128
  store i32 %44, ptr %42, align 4, !tbaa !66
  ret void
}